target datalayout = "e-m:e-p270:32:32-p271:32:32-p272:64:64-i64:64-i128:128-f80:128-n8:16:32:64-S128"
target triple = "x86_64-pc-linux-gnu"

%struct.lwCanvas = type { i32, i32, ptr }
%struct.client = type { i64, i64, ptr, i8, i8, i8, i8, i32, ptr, ptr, ptr, ptr, ptr, i64, i64, i32, ptr, i32, i32, ptr, i64, ptr, ptr, ptr, ptr, ptr, i32, i32, i64, ptr, i64, ptr, i64, i64, i64, i32, ptr, i64, i64, i32, i32, i32, i32, i64, i64, ptr, i64, i64, i64, i64, i64, i64, i64, i64, [41 x i8], i32, ptr, i32, i32, i64, %struct.multiState, %struct.blockingState, i64, ptr, ptr, ptr, ptr, ptr, ptr, ptr, ptr, ptr, ptr, ptr, ptr, ptr, ptr, i64, ptr, i64, i32, ptr, ptr, ptr, i64, %struct.listNode, i64, i64, i32, i64, ptr }
%struct.multiState = type { ptr, i32, i32, i32, i64, i32 }
%struct.blockingState = type { i32, i64, i32, ptr, i32, i32, i64, ptr, ptr, i64 }
%struct.listNode = type { ptr, ptr, ptr }
%struct.sdshdr8 = type { i8, i8, i8, [0 x i8] }
%struct.sdshdr16 = type <{ i16, i16, i8, [0 x i8] }>
%struct.sdshdr32 = type <{ i32, i32, i8, [0 x i8] }>
%struct.sdshdr64 = type <{ i64, i64, i8, [0 x i8] }>

@.str = private unnamed_addr constant [124 x i8] c"\0ADedicated to the 8 bit game developers of past and present.\0AOriginal 8 bit image from Plaguemon by hikikomori. Redis ver. \00", align 1
@.str.1 = private unnamed_addr constant [12 x i8] c"255.255.255\00", align 1
@.str.2 = private unnamed_addr constant [2 x i8] c"\0A\00", align 1
@.str.3 = private unnamed_addr constant [4 x i8] c"txt\00", align 1
@.str.4 = private unnamed_addr constant [9 x i8] c"0;30;40m\00", align 1
@.str.5 = private unnamed_addr constant [10 x i8] c"0;90;100m\00", align 1
@.str.6 = private unnamed_addr constant [9 x i8] c"0;37;47m\00", align 1
@.str.7 = private unnamed_addr constant [10 x i8] c"0;97;107m\00", align 1
@.str.8 = private unnamed_addr constant [10 x i8] c"\1B[%s \1B[0m\00", align 1

; Function Attrs: inlinehint nounwind uwtable
define internal i64 @sdslen(ptr noundef %0) #4 {
  %2 = alloca i64, align 8
  %3 = alloca ptr, align 8
  %4 = alloca i8, align 1
  %5 = alloca i32, align 4
  store ptr %0, ptr %3, align 8, !tbaa !54
  call void @llvm.lifetime.start.p0(i64 1, ptr %4) #5
  %6 = load ptr, ptr %3, align 8, !tbaa !54
  %7 = getelementptr inbounds i8, ptr %6, i64 -1
  %8 = load i8, ptr %7, align 1, !tbaa !57
  store i8 %8, ptr %4, align 1, !tbaa !57
  %9 = load i8, ptr %4, align 1, !tbaa !57
  %10 = zext i8 %9 to i32
  %11 = and i32 %10, 7
  switch i32 %11, label %40 [
    i32 0, label %12
    i32 1, label %17
    i32 2, label %23
    i32 3, label %29
    i32 4, label %35
  ]

12:                                               ; preds = %1
  %13 = load i8, ptr %4, align 1, !tbaa !57
  %14 = zext i8 %13 to i32
  %15 = ashr i32 %14, 3
  %16 = sext i32 %15 to i64
  store i64 %16, ptr %2, align 8
  store i32 1, ptr %5, align 4
  br label %41

17:                                               ; preds = %1
  %18 = load ptr, ptr %3, align 8, !tbaa !54
  %19 = getelementptr inbounds i8, ptr %18, i64 -3
  %20 = getelementptr inbounds nuw %struct.sdshdr8, ptr %19, i32 0, i32 0
  %21 = load i8, ptr %20, align 1, !tbaa !57
  %22 = zext i8 %21 to i64
  store i64 %22, ptr %2, align 8
  store i32 1, ptr %5, align 4
  br label %41

23:                                               ; preds = %1
  %24 = load ptr, ptr %3, align 8, !tbaa !54
  %25 = getelementptr inbounds i8, ptr %24, i64 -5
  %26 = getelementptr inbounds nuw %struct.sdshdr16, ptr %25, i32 0, i32 0
  %27 = load i16, ptr %26, align 1, !tbaa !58
  %28 = zext i16 %27 to i64
  store i64 %28, ptr %2, align 8
  store i32 1, ptr %5, align 4
  br label %41

29:                                               ; preds = %1
  %30 = load ptr, ptr %3, align 8, !tbaa !54
  %31 = getelementptr inbounds i8, ptr %30, i64 -9
  %32 = getelementptr inbounds nuw %struct.sdshdr32, ptr %31, i32 0, i32 0
  %33 = load i32, ptr %32, align 1, !tbaa !16
  %34 = zext i32 %33 to i64
  store i64 %34, ptr %2, align 8
  store i32 1, ptr %5, align 4
  br label %41

35:                                               ; preds = %1
  %36 = load ptr, ptr %3, align 8, !tbaa !54
  %37 = getelementptr inbounds i8, ptr %36, i64 -17
  %38 = getelementptr inbounds nuw %struct.sdshdr64, ptr %37, i32 0, i32 0
  %39 = load i64, ptr %38, align 1, !tbaa !33
  store i64 %39, ptr %2, align 8
  store i32 1, ptr %5, align 4
  br label %41

40:                                               ; preds = %1
  store i64 0, ptr %2, align 8
  store i32 1, ptr %5, align 4
  br label %41

41:                                               ; preds = %40, %35, %29, %23, %17, %12
  call void @llvm.lifetime.end.p0(i64 1, ptr %4) #5
  %42 = load i64, ptr %2, align 8
  ret i64 %42
}

; Function Attrs: nounwind uwtable
define internal ptr @renderCanvas(ptr noundef %0) #0 {
  %2 = alloca ptr, align 8
  %3 = alloca ptr, align 8
  %4 = alloca i32, align 4
  %5 = alloca i32, align 4
  %6 = alloca i32, align 4
  %7 = alloca i32, align 4
  %8 = alloca ptr, align 8
  store ptr %0, ptr %2, align 8, !tbaa !5
  call void @llvm.lifetime.start.p0(i64 8, ptr %3) #5
  %9 = call ptr @sdsempty()
  store ptr %9, ptr %3, align 8, !tbaa !54
  call void @llvm.lifetime.start.p0(i64 4, ptr %4) #5
  store i32 0, ptr %4, align 4, !tbaa !16
  br label %10

10:                                               ; preds = %54, %1
  %11 = load i32, ptr %4, align 4, !tbaa !16
  %12 = load ptr, ptr %2, align 8, !tbaa !5
  %13 = getelementptr inbounds nuw %struct.lwCanvas, ptr %12, i32 0, i32 1
  %14 = load i32, ptr %13, align 4, !tbaa !12
  %15 = icmp slt i32 %11, %14
  br i1 %15, label %17, label %16

16:                                               ; preds = %10
  store i32 2, ptr %5, align 4
  call void @llvm.lifetime.end.p0(i64 4, ptr %4) #5
  br label %57

17:                                               ; preds = %10
  call void @llvm.lifetime.start.p0(i64 4, ptr %6) #5
  store i32 0, ptr %6, align 4, !tbaa !16
  br label %18

18:                                               ; preds = %40, %17
  %19 = load i32, ptr %6, align 4, !tbaa !16
  %20 = load ptr, ptr %2, align 8, !tbaa !5
  %21 = getelementptr inbounds nuw %struct.lwCanvas, ptr %20, i32 0, i32 0
  %22 = load i32, ptr %21, align 8, !tbaa !27
  %23 = icmp slt i32 %19, %22
  br i1 %23, label %25, label %24

24:                                               ; preds = %18
  store i32 5, ptr %5, align 4
  call void @llvm.lifetime.end.p0(i64 4, ptr %6) #5
  br label %43

25:                                               ; preds = %18
  call void @llvm.lifetime.start.p0(i64 4, ptr %7) #5
  %26 = load ptr, ptr %2, align 8, !tbaa !5
  %27 = load i32, ptr %6, align 4, !tbaa !16
  %28 = load i32, ptr %4, align 4, !tbaa !16
  %29 = call i32 @lwGetPixel(ptr noundef %26, i32 noundef %27, i32 noundef %28)
  store i32 %29, ptr %7, align 4, !tbaa !16
  call void @llvm.lifetime.start.p0(i64 8, ptr %8) #5
  %30 = load i32, ptr %7, align 4, !tbaa !16
  switch i32 %30, label %35 [
    i32 0, label %31
    i32 1, label %32
    i32 2, label %33
    i32 3, label %34
  ]

31:                                               ; preds = %25
  store ptr @.str.4, ptr %8, align 8, !tbaa !54
  br label %36

32:                                               ; preds = %25
  store ptr @.str.5, ptr %8, align 8, !tbaa !54
  br label %36

33:                                               ; preds = %25
  store ptr @.str.6, ptr %8, align 8, !tbaa !54
  br label %36

34:                                               ; preds = %25
  store ptr @.str.7, ptr %8, align 8, !tbaa !54
  br label %36

35:                                               ; preds = %25
  store ptr @.str.4, ptr %8, align 8, !tbaa !54
  br label %36

36:                                               ; preds = %35, %34, %33, %32, %31
  %37 = load ptr, ptr %3, align 8, !tbaa !54
  %38 = load ptr, ptr %8, align 8, !tbaa !54
  %39 = call ptr (ptr, ptr, ...) @sdscatprintf(ptr noundef %37, ptr noundef @.str.8, ptr noundef %38)
  store ptr %39, ptr %3, align 8, !tbaa !54
  call void @llvm.lifetime.end.p0(i64 8, ptr %8) #5
  call void @llvm.lifetime.end.p0(i64 4, ptr %7) #5
  br label %40

40:                                               ; preds = %36
  %41 = load i32, ptr %6, align 4, !tbaa !16
  %42 = add nsw i32 %41, 1
  store i32 %42, ptr %6, align 4, !tbaa !16
  br label %18, !llvm.loop !55

43:                                               ; preds = %24
  %44 = load i32, ptr %4, align 4, !tbaa !16
  %45 = load ptr, ptr %2, align 8, !tbaa !5
  %46 = getelementptr inbounds nuw %struct.lwCanvas, ptr %45, i32 0, i32 1
  %47 = load i32, ptr %46, align 4, !tbaa !12
  %48 = sub nsw i32 %47, 1
  %49 = icmp ne i32 %44, %48
  br i1 %49, label %50, label %53

50:                                               ; preds = %43
  %51 = load ptr, ptr %3, align 8, !tbaa !54
  %52 = call ptr @sdscatlen(ptr noundef %51, ptr noundef @.str.2, i64 noundef 1)
  store ptr %52, ptr %3, align 8, !tbaa !54
  br label %53

53:                                               ; preds = %50, %43
  br label %54

54:                                               ; preds = %53
  %55 = load i32, ptr %4, align 4, !tbaa !16
  %56 = add nsw i32 %55, 1
  store i32 %56, ptr %4, align 4, !tbaa !16
  br label %10, !llvm.loop !56

57:                                               ; preds = %16
  %58 = load ptr, ptr %3, align 8, !tbaa !54
  store i32 1, ptr %5, align 4
  call void @llvm.lifetime.end.p0(i64 8, ptr %3) #5
  ret ptr %58
}

; Function Attrs: nounwind uwtable
define dso_local void @lolwut6Command(ptr noundef %0) #0 {
  %2 = alloca ptr, align 8
  %3 = alloca i64, align 8
  %4 = alloca i64, align 8
  %5 = alloca i32, align 4
  %6 = alloca ptr, align 8
  %7 = alloca ptr, align 8
  store ptr %0, ptr %2, align 8, !tbaa !31
  call void @llvm.lifetime.start.p0(i64 8, ptr %3) #5
  store i64 80, ptr %3, align 8, !tbaa !33
  call void @llvm.lifetime.start.p0(i64 8, ptr %4) #5
  store i64 20, ptr %4, align 8, !tbaa !33
  %8 = load ptr, ptr %2, align 8, !tbaa !31
  %9 = getelementptr inbounds nuw %struct.client, ptr %8, i32 0, i32 15
  %10 = load i32, ptr %9, align 8, !tbaa !35
  %11 = icmp sgt i32 %10, 1
  br i1 %11, label %12, label %22

12:                                               ; preds = %1
  %13 = load ptr, ptr %2, align 8, !tbaa !31
  %14 = load ptr, ptr %2, align 8, !tbaa !31
  %15 = getelementptr inbounds nuw %struct.client, ptr %14, i32 0, i32 16
  %16 = load ptr, ptr %15, align 8, !tbaa !52
  %17 = getelementptr inbounds ptr, ptr %16, i64 1
  %18 = load ptr, ptr %17, align 8, !tbaa !53
  %19 = call i32 @getLongFromObjectOrReply(ptr noundef %13, ptr noundef %18, ptr noundef %3, ptr noundef null)
  %20 = icmp ne i32 %19, 0
  br i1 %20, label %21, label %22

21:                                               ; preds = %12
  store i32 1, ptr %5, align 4
  br label %74

22:                                               ; preds = %12, %1
  %23 = load ptr, ptr %2, align 8, !tbaa !31
  %24 = getelementptr inbounds nuw %struct.client, ptr %23, i32 0, i32 15
  %25 = load i32, ptr %24, align 8, !tbaa !35
  %26 = icmp sgt i32 %25, 2
  br i1 %26, label %27, label %37

27:                                               ; preds = %22
  %28 = load ptr, ptr %2, align 8, !tbaa !31
  %29 = load ptr, ptr %2, align 8, !tbaa !31
  %30 = getelementptr inbounds nuw %struct.client, ptr %29, i32 0, i32 16
  %31 = load ptr, ptr %30, align 8, !tbaa !52
  %32 = getelementptr inbounds ptr, ptr %31, i64 2
  %33 = load ptr, ptr %32, align 8, !tbaa !53
  %34 = call i32 @getLongFromObjectOrReply(ptr noundef %28, ptr noundef %33, ptr noundef %4, ptr noundef null)
  %35 = icmp ne i32 %34, 0
  br i1 %35, label %36, label %37

36:                                               ; preds = %27
  store i32 1, ptr %5, align 4
  br label %74

37:                                               ; preds = %27, %22
  %38 = load i64, ptr %3, align 8, !tbaa !33
  %39 = icmp slt i64 %38, 1
  br i1 %39, label %40, label %41

40:                                               ; preds = %37
  store i64 1, ptr %3, align 8, !tbaa !33
  br label %41

41:                                               ; preds = %40, %37
  %42 = load i64, ptr %3, align 8, !tbaa !33
  %43 = icmp sgt i64 %42, 1000
  br i1 %43, label %44, label %45

44:                                               ; preds = %41
  store i64 1000, ptr %3, align 8, !tbaa !33
  br label %45

45:                                               ; preds = %44, %41
  %46 = load i64, ptr %4, align 8, !tbaa !33
  %47 = icmp slt i64 %46, 1
  br i1 %47, label %48, label %49

48:                                               ; preds = %45
  store i64 1, ptr %4, align 8, !tbaa !33
  br label %49

49:                                               ; preds = %48, %45
  %50 = load i64, ptr %4, align 8, !tbaa !33
  %51 = icmp sgt i64 %50, 1000
  br i1 %51, label %52, label %53

52:                                               ; preds = %49
  store i64 1000, ptr %4, align 8, !tbaa !33
  br label %53

53:                                               ; preds = %52, %49
  call void @llvm.lifetime.start.p0(i64 8, ptr %6) #5
  %54 = load i64, ptr %3, align 8, !tbaa !33
  %55 = trunc i64 %54 to i32
  %56 = load i64, ptr %4, align 8, !tbaa !33
  %57 = trunc i64 %56 to i32
  %58 = call ptr @lwCreateCanvas(i32 noundef %55, i32 noundef %57, i32 noundef 3)
  store ptr %58, ptr %6, align 8, !tbaa !5
  %59 = load ptr, ptr %6, align 8, !tbaa !5
  call void @generateSkyline(ptr noundef %59)
  call void @llvm.lifetime.start.p0(i64 8, ptr %7) #5
  %60 = load ptr, ptr %6, align 8, !tbaa !5
  %61 = call ptr @renderCanvas(ptr noundef %60)
  store ptr %61, ptr %7, align 8, !tbaa !54
  %62 = load ptr, ptr %7, align 8, !tbaa !54
  %63 = call ptr @sdscat(ptr noundef %62, ptr noundef @.str)
  store ptr %63, ptr %7, align 8, !tbaa !54
  %64 = load ptr, ptr %7, align 8, !tbaa !54
  %65 = call ptr @sdscat(ptr noundef %64, ptr noundef @.str.1)
  store ptr %65, ptr %7, align 8, !tbaa !54
  %66 = load ptr, ptr %7, align 8, !tbaa !54
  %67 = call ptr @sdscatlen(ptr noundef %66, ptr noundef @.str.2, i64 noundef 1)
  store ptr %67, ptr %7, align 8, !tbaa !54
  %68 = load ptr, ptr %2, align 8, !tbaa !31
  %69 = load ptr, ptr %7, align 8, !tbaa !54
  %70 = load ptr, ptr %7, align 8, !tbaa !54
  %71 = call i64 @sdslen(ptr noundef %70)
  call void @addReplyVerbatim(ptr noundef %68, ptr noundef %69, i64 noundef %71, ptr noundef @.str.3)
  %72 = load ptr, ptr %7, align 8, !tbaa !54
  call void @sdsfree(ptr noundef %72)
  %73 = load ptr, ptr %6, align 8, !tbaa !5
  call void @lwFreeCanvas(ptr noundef %73)
  call void @llvm.lifetime.end.p0(i64 8, ptr %7) #5
  call void @llvm.lifetime.end.p0(i64 8, ptr %6) #5
  store i32 0, ptr %5, align 4
  br label %74

74:                                               ; preds = %53, %36, %21
  call void @llvm.lifetime.end.p0(i64 8, ptr %4) #5
  call void @llvm.lifetime.end.p0(i64 8, ptr %3) #5
  %75 = load i32, ptr %5, align 4
  switch i32 %75, label %77 [
    i32 0, label %76
    i32 1, label %76
  ]

76:                                               ; preds = %74, %74
  ret void

77:                                               ; preds = %74
  unreachable
}