; Function Attrs: nounwind uwtable
define dso_local void @lolwut6Command(ptr noundef %0) local_unnamed_addr #0 {
  %2 = alloca i64, align 8
  %3 = alloca i64, align 8
  call void @llvm.lifetime.start.p0(i64 8, ptr nonnull %2) #4
  store i64 80, ptr %2, align 8, !tbaa !27
  call void @llvm.lifetime.start.p0(i64 8, ptr nonnull %3) #4
  store i64 20, ptr %3, align 8, !tbaa !27
  %4 = getelementptr inbounds nuw i8, ptr %0, i64 88
  %5 = load i32, ptr %4, align 8, !tbaa !29
  %6 = icmp sgt i32 %5, 1
  br i1 %6, label %7, label %.thread

7:                                                ; preds = %1
  %8 = getelementptr inbounds nuw i8, ptr %0, i64 96
  %9 = load ptr, ptr %8, align 8, !tbaa !46
  %10 = getelementptr inbounds nuw i8, ptr %9, i64 8
  %11 = load ptr, ptr %10, align 8, !tbaa !47
  %12 = call i32 @getLongFromObjectOrReply(ptr noundef nonnull %0, ptr noundef %11, ptr noundef nonnull %2, ptr noundef null) #4
  %.not = icmp eq i32 %12, 0
  br i1 %.not, label %13, label %83

13:                                               ; preds = %7
  %.pr = load i32, ptr %4, align 8, !tbaa !29
  %14 = icmp sgt i32 %.pr, 2
  br i1 %14, label %15, label %.thread

15:                                               ; preds = %13
  %16 = load ptr, ptr %8, align 8, !tbaa !46
  %17 = getelementptr inbounds nuw i8, ptr %16, i64 16
  %18 = load ptr, ptr %17, align 8, !tbaa !47
  %19 = call i32 @getLongFromObjectOrReply(ptr noundef nonnull %0, ptr noundef %18, ptr noundef nonnull %3, ptr noundef null) #4
  %.not16 = icmp eq i32 %19, 0
  br i1 %.not16, label %.thread, label %83

.thread:                                          ; preds = %1, %15, %13
  %20 = load i64, ptr %2, align 8, !tbaa !27
  %21 = icmp slt i64 %20, 1
  br i1 %21, label %.sink.split, label %22

22:                                               ; preds = %.thread
  %23 = icmp samesign ugt i64 %20, 1000
  br i1 %23, label %.sink.split, label %24

.sink.split:                                      ; preds = %22, %.thread
  %.sink = phi i64 [ 1, %.thread ], [ 1000, %22 ]
  store i64 %.sink, ptr %2, align 8, !tbaa !27
  br label %24

24:                                               ; preds = %.sink.split, %22
  %25 = phi i64 [ %20, %22 ], [ %.sink, %.sink.split ]
  %26 = load i64, ptr %3, align 8, !tbaa !27
  %27 = icmp slt i64 %26, 1
  br i1 %27, label %.sink.split20, label %28

28:                                               ; preds = %24
  %29 = icmp samesign ugt i64 %26, 1000
  br i1 %29, label %.sink.split20, label %30

.sink.split20:                                    ; preds = %28, %24
  %.sink22 = phi i64 [ 1, %24 ], [ 1000, %28 ]
  store i64 %.sink22, ptr %3, align 8, !tbaa !27
  br label %30

30:                                               ; preds = %.sink.split20, %28
  %31 = phi i64 [ %26, %28 ], [ %.sink22, %.sink.split20 ]
  %32 = trunc nuw i64 %25 to i32
  %33 = trunc nuw i64 %31 to i32
  %34 = call ptr @lwCreateCanvas(i32 noundef %32, i32 noundef %33, i32 noundef 3) #4
  call void @generateSkyline(ptr noundef %34)
  %35 = call ptr @sdsempty() #4
  %36 = getelementptr inbounds nuw i8, ptr %34, i64 4
  %37 = load i32, ptr %36, align 4, !tbaa !5
  %38 = icmp sgt i32 %37, 0
  br i1 %38, label %.preheader.i, label %renderCanvas.exit

.preheader.i:                                     ; preds = %30, %54
  %39 = phi i32 [ %55, %54 ], [ %37, %30 ]
  %.01521.i = phi ptr [ %.2.i, %54 ], [ %35, %30 ]
  %.01720.i = phi i32 [ %56, %54 ], [ 0, %30 ]
  %40 = load i32, ptr %34, align 8, !tbaa !22
  %41 = icmp sgt i32 %40, 0
  br i1 %41, label %.lr.ph.i, label %._crit_edge.i

._crit_edge.loopexit.i:                           ; preds = %47
  %.pre.i = load i32, ptr %36, align 4, !tbaa !5
  br label %._crit_edge.i

._crit_edge.i:                                    ; preds = %._crit_edge.loopexit.i, %.preheader.i
  %42 = phi i32 [ %39, %.preheader.i ], [ %.pre.i, %._crit_edge.loopexit.i ]
  %.1.lcssa.i = phi ptr [ %.01521.i, %.preheader.i ], [ %48, %._crit_edge.loopexit.i ]
  %43 = add nsw i32 %42, -1
  %.not.i = icmp eq i32 %.01720.i, %43
  br i1 %.not.i, label %54, label %52

.lr.ph.i:                                         ; preds = %.preheader.i, %47
  %.119.i = phi ptr [ %48, %47 ], [ %.01521.i, %.preheader.i ]
  %.01618.i = phi i32 [ %49, %47 ], [ 0, %.preheader.i ]
  %44 = call i32 @lwGetPixel(ptr noundef nonnull %34, i32 noundef %.01618.i, i32 noundef %.01720.i) #4
  %switch.tableidx = add i32 %44, -1
  %45 = icmp ult i32 %switch.tableidx, 3
  br i1 %45, label %switch.lookup, label %47

switch.lookup:                                    ; preds = %.lr.ph.i
  %46 = zext nneg i32 %switch.tableidx to i64
  %switch.gep = getelementptr inbounds nuw [3 x ptr], ptr @switch.table.lolwut6Command, i64 0, i64 %46
  %switch.load = load ptr, ptr %switch.gep, align 8
  br label %47

47:                                               ; preds = %.lr.ph.i, %switch.lookup
  %.0.i = phi ptr [ %switch.load, %switch.lookup ], [ @.str.4, %.lr.ph.i ]
  %48 = call ptr (ptr, ptr, ...) @sdscatprintf(ptr noundef %.119.i, ptr noundef nonnull @.str.8, ptr noundef nonnull %.0.i) #4
  %49 = add nuw nsw i32 %.01618.i, 1
  %50 = load i32, ptr %34, align 8, !tbaa !22
  %51 = icmp slt i32 %49, %50
  br i1 %51, label %.lr.ph.i, label %._crit_edge.loopexit.i, !llvm.loop !48

52:                                               ; preds = %._crit_edge.i
  %53 = call ptr @sdscatlen(ptr noundef %.1.lcssa.i, ptr noundef nonnull @.str.2, i64 noundef 1) #4
  %.pre24.i = load i32, ptr %36, align 4, !tbaa !5
  br label %54

54:                                               ; preds = %52, %._crit_edge.i
  %55 = phi i32 [ %.pre24.i, %52 ], [ %42, %._crit_edge.i ]
  %.2.i = phi ptr [ %53, %52 ], [ %.1.lcssa.i, %._crit_edge.i ]
  %56 = add nuw nsw i32 %.01720.i, 1
  %57 = icmp slt i32 %56, %55
  br i1 %57, label %.preheader.i, label %renderCanvas.exit, !llvm.loop !49

renderCanvas.exit:                                ; preds = %54, %30
  %.015.lcssa.i = phi ptr [ %35, %30 ], [ %.2.i, %54 ]
  %58 = call ptr @sdscat(ptr noundef %.015.lcssa.i, ptr noundef nonnull @.str) #4
  %59 = call ptr @sdscat(ptr noundef %58, ptr noundef nonnull @.str.1) #4
  %60 = call ptr @sdscatlen(ptr noundef %59, ptr noundef nonnull @.str.2, i64 noundef 1) #4
  %61 = getelementptr inbounds i8, ptr %60, i64 -1
  %62 = load i8, ptr %61, align 1, !tbaa !50
  %63 = zext i8 %62 to i32
  %64 = and i32 %63, 7
  switch i32 %64, label %sdslen.exit [
    i32 0, label %65
    i32 1, label %68
    i32 2, label %72
    i32 3, label %76
    i32 4, label %80
  ]

65:                                               ; preds = %renderCanvas.exit
  %66 = lshr i32 %63, 3
  %67 = zext nneg i32 %66 to i64
  br label %sdslen.exit

68:                                               ; preds = %renderCanvas.exit
  %69 = getelementptr inbounds i8, ptr %60, i64 -3
  %70 = load i8, ptr %69, align 1, !tbaa !50
  %71 = zext i8 %70 to i64
  br label %sdslen.exit

72:                                               ; preds = %renderCanvas.exit
  %73 = getelementptr inbounds i8, ptr %60, i64 -5
  %74 = load i16, ptr %73, align 1, !tbaa !51
  %75 = zext i16 %74 to i64
  br label %sdslen.exit

76:                                               ; preds = %renderCanvas.exit
  %77 = getelementptr inbounds i8, ptr %60, i64 -9
  %78 = load i32, ptr %77, align 1, !tbaa !53
  %79 = zext i32 %78 to i64
  br label %sdslen.exit

80:                                               ; preds = %renderCanvas.exit
  %81 = getelementptr inbounds i8, ptr %60, i64 -17
  %82 = load i64, ptr %81, align 1, !tbaa !27
  br label %sdslen.exit

sdslen.exit:                                      ; preds = %renderCanvas.exit, %65, %68, %72, %76, %80
  %.0.i17 = phi i64 [ %82, %80 ], [ %79, %76 ], [ %75, %72 ], [ %71, %68 ], [ %67, %65 ], [ 0, %renderCanvas.exit ]
  call void @addReplyVerbatim(ptr noundef %0, ptr noundef nonnull %60, i64 noundef %.0.i17, ptr noundef nonnull @.str.3) #4
  call void @sdsfree(ptr noundef nonnull %60) #4
  call void @lwFreeCanvas(ptr noundef nonnull %34) #4
  br label %83

83:                                               ; preds = %15, %7, %sdslen.exit
  call void @llvm.lifetime.end.p0(i64 8, ptr nonnull %3) #4
  call void @llvm.lifetime.end.p0(i64 8, ptr nonnull %2) #4
  ret void
}